target datalayout = "e-m:e-p270:32:32-p271:32:32-p272:64:64-i64:64-i128:128-f80:128-n8:16:32:64-S128"
target triple = "x86_64-unknown-linux-gnu"

%"class.std::__cxx11::basic_string" = type { %"struct.std::__cxx11::basic_string<char>::_Alloc_hider", i64, %union.anon }
%"struct.std::__cxx11::basic_string<char>::_Alloc_hider" = type { ptr }
%union.anon = type { i64, [8 x i8] }
%"class.net::QuicConfigValue" = type { ptr, i32, i32 }
%"class.net::QuicFixedIPEndPoint" = type <{ %"class.net::QuicConfigValue", %"class.net::IPEndPoint", i8, [7 x i8], %"class.net::IPEndPoint", i8, [7 x i8] }>
%"class.net::IPEndPoint" = type <{ %"class.net::IPAddress", i16, [6 x i8] }>
%"class.net::IPAddress" = type { %"class.std::vector.8" }
%"class.std::vector.8" = type { %"struct.std::_Vector_base.9" }
%"struct.std::_Vector_base.9" = type { %"struct.std::_Vector_base<unsigned char, std::allocator<unsigned char>>::_Vector_impl" }
%"struct.std::_Vector_base<unsigned char, std::allocator<unsigned char>>::_Vector_impl" = type { %"struct.std::_Vector_base<unsigned char, std::allocator<unsigned char>>::_Vector_impl_data" }
%"struct.std::_Vector_base<unsigned char, std::allocator<unsigned char>>::_Vector_impl_data" = type { ptr, ptr, ptr }
%"class.net::QuicSocketAddressCoder" = type { %"class.net::IPEndPoint" }
%"class.base::BasicStringPiece" = type { ptr, i64 }

@.str = private unnamed_addr constant [9 x i8] c"Missing \00", align 1

; Function Attrs: mustprogress uwtable
define linkonce_odr dso_local noundef nonnull align 8 dereferenceable(24) ptr @_ZN3net9IPAddressaSERKS0_(ptr noundef nonnull align 8 dereferenceable(24) %this, ptr noundef nonnull align 8 dereferenceable(24) %0) #0 comdat align 2 {
entry:
  %this.addr = alloca ptr, align 8
  %.addr = alloca ptr, align 8
  store ptr %this, ptr %this.addr, align 8
  store ptr %0, ptr %.addr, align 8
  %this1 = load ptr, ptr %this.addr, align 8
  %ip_address_ = getelementptr inbounds %"class.net::IPAddress", ptr %this1, i32 0, i32 0
  %1 = load ptr, ptr %.addr, align 8
  %ip_address_2 = getelementptr inbounds %"class.net::IPAddress", ptr %1, i32 0, i32 0
  %call = call noundef nonnull align 8 dereferenceable(24) ptr @_ZNSt6vectorIhSaIhEEaSERKS1_(ptr noundef nonnull align 8 dereferenceable(24) %ip_address_, ptr noundef nonnull align 8 dereferenceable(24) %ip_address_2)
  ret ptr %this1
}

; Function Attrs: mustprogress uwtable
define linkonce_odr dso_local noundef nonnull align 8 dereferenceable(26) ptr @_ZN3net10IPEndPointaSERKS0_(ptr noundef nonnull align 8 dereferenceable(26) %this, ptr noundef nonnull align 8 dereferenceable(26) %0) #0 comdat align 2 {
entry:
  %this.addr = alloca ptr, align 8
  %.addr = alloca ptr, align 8
  store ptr %this, ptr %this.addr, align 8
  store ptr %0, ptr %.addr, align 8
  %this1 = load ptr, ptr %this.addr, align 8
  %address_ = getelementptr inbounds %"class.net::IPEndPoint", ptr %this1, i32 0, i32 0
  %1 = load ptr, ptr %.addr, align 8
  %address_2 = getelementptr inbounds %"class.net::IPEndPoint", ptr %1, i32 0, i32 0
  %call = call noundef nonnull align 8 dereferenceable(24) ptr @_ZN3net9IPAddressaSERKS0_(ptr noundef nonnull align 8 dereferenceable(24) %address_, ptr noundef nonnull align 8 dereferenceable(24) %address_2)
  %2 = load ptr, ptr %.addr, align 8
  %port_ = getelementptr inbounds %"class.net::IPEndPoint", ptr %2, i32 0, i32 1
  %3 = load i16, ptr %port_, align 8
  %port_3 = getelementptr inbounds %"class.net::IPEndPoint", ptr %this1, i32 0, i32 1
  store i16 %3, ptr %port_3, align 8
  ret ptr %this1
}

; Function Attrs: mustprogress nounwind uwtable
define linkonce_odr dso_local noundef zeroext i16 @_ZNK3net10IPEndPoint4portEv(ptr noundef nonnull align 8 dereferenceable(26) %this) #3 comdat align 2 {
entry:
  %this.addr = alloca ptr, align 8
  store ptr %this, ptr %this.addr, align 8
  %this1 = load ptr, ptr %this.addr, align 8
  %port_ = getelementptr inbounds %"class.net::IPEndPoint", ptr %this1, i32 0, i32 1
  %0 = load i16, ptr %port_, align 8
  ret i16 %0
}

; Function Attrs: mustprogress nounwind uwtable
define linkonce_odr dso_local noundef nonnull align 8 dereferenceable(24) ptr @_ZNK3net10IPEndPoint7addressEv(ptr noundef nonnull align 8 dereferenceable(26) %this) #3 comdat align 2 {
entry:
  %this.addr = alloca ptr, align 8
  store ptr %this, ptr %this.addr, align 8
  %this1 = load ptr, ptr %this.addr, align 8
  %address_ = getelementptr inbounds %"class.net::IPEndPoint", ptr %this1, i32 0, i32 0
  ret ptr %address_
}

; Function Attrs: mustprogress uwtable
define dso_local void @_ZN3net19QuicFixedIPEndPoint16SetReceivedValueERKNS_10IPEndPointE(ptr noundef nonnull align 8 dereferenceable(89) %this, ptr noundef nonnull align 8 dereferenceable(26) %value) #0 align 2 {
entry:
  %this.addr = alloca ptr, align 8
  %value.addr = alloca ptr, align 8
  store ptr %this, ptr %this.addr, align 8
  store ptr %value, ptr %value.addr, align 8
  %this1 = load ptr, ptr %this.addr, align 8
  %has_receive_value_ = getelementptr inbounds %"class.net::QuicFixedIPEndPoint", ptr %this1, i32 0, i32 5
  store i8 1, ptr %has_receive_value_, align 8
  %0 = load ptr, ptr %value.addr, align 8
  %receive_value_ = getelementptr inbounds %"class.net::QuicFixedIPEndPoint", ptr %this1, i32 0, i32 4
  %call = call noundef nonnull align 8 dereferenceable(26) ptr @_ZN3net10IPEndPointaSERKS0_(ptr noundef nonnull align 8 dereferenceable(26) %receive_value_, ptr noundef nonnull align 8 dereferenceable(26) %0)
  ret void
}

; Function Attrs: mustprogress uwtable
define linkonce_odr dso_local noundef zeroext i16 @_ZNK3net22QuicSocketAddressCoder4portEv(ptr noundef nonnull align 8 dereferenceable(32) %this) #0 comdat align 2 {
entry:
  %this.addr = alloca ptr, align 8
  store ptr %this, ptr %this.addr, align 8
  %this1 = load ptr, ptr %this.addr, align 8
  %address_ = getelementptr inbounds %"class.net::QuicSocketAddressCoder", ptr %this1, i32 0, i32 0
  %call = call noundef zeroext i16 @_ZNK3net10IPEndPoint4portEv(ptr noundef nonnull align 8 dereferenceable(26) %address_)
  ret i16 %call
}

; Function Attrs: mustprogress uwtable
define linkonce_odr dso_local noundef nonnull align 8 dereferenceable(24) ptr @_ZNK3net22QuicSocketAddressCoder2ipEv(ptr noundef nonnull align 8 dereferenceable(32) %this) #0 comdat align 2 {
entry:
  %this.addr = alloca ptr, align 8
  store ptr %this, ptr %this.addr, align 8
  %this1 = load ptr, ptr %this.addr, align 8
  %address_ = getelementptr inbounds %"class.net::QuicSocketAddressCoder", ptr %this1, i32 0, i32 0
  %call = call noundef nonnull align 8 dereferenceable(24) ptr @_ZNK3net10IPEndPoint7addressEv(ptr noundef nonnull align 8 dereferenceable(26) %address_)
  ret ptr %call
}

; Function Attrs: mustprogress uwtable
define linkonce_odr dso_local void @_ZStplIcSt11char_traitsIcESaIcEENSt7__cxx1112basic_stringIT_T0_T1_EEPKS5_OS8_(ptr noalias sret(%"class.std::__cxx11::basic_string") align 8 %agg.result, ptr noundef %__lhs, ptr noundef nonnull align 8 dereferenceable(32) %__rhs) #0 comdat {
entry:
  %result.ptr = alloca ptr, align 8
  %__lhs.addr = alloca ptr, align 8
  %__rhs.addr = alloca ptr, align 8
  store ptr %agg.result, ptr %result.ptr, align 8
  store ptr %__lhs, ptr %__lhs.addr, align 8
  store ptr %__rhs, ptr %__rhs.addr, align 8
  %0 = load ptr, ptr %__rhs.addr, align 8
  %1 = load ptr, ptr %__lhs.addr, align 8
  %call = call noundef nonnull align 8 dereferenceable(32) ptr @_ZNSt7__cxx1112basic_stringIcSt11char_traitsIcESaIcEE6insertEmPKc(ptr noundef nonnull align 8 dereferenceable(32) %0, i64 noundef 0, ptr noundef %1)
  call void @_ZNSt7__cxx1112basic_stringIcSt11char_traitsIcESaIcEEC1EOS4_(ptr noundef nonnull align 8 dereferenceable(32) %agg.result, ptr noundef nonnull align 8 dereferenceable(32) %call) #11
  ret void
}

; Function Attrs: mustprogress uwtable
define dso_local noundef i32 @_ZN3net19QuicFixedIPEndPoint16ProcessPeerHelloERKNS_22CryptoHandshakeMessageENS_9HelloTypeEPNSt7__cxx1112basic_stringIcSt11char_traitsIcESaIcEEE(ptr noundef nonnull align 8 dereferenceable(89) %this, ptr noundef nonnull align 8 dereferenceable(72) %peer_hello, i32 noundef %hello_type, ptr noundef %error_details) unnamed_addr #0 align 2 personality ptr @__gxx_personality_v0 {
entry:
  %retval = alloca i32, align 4
  %this.addr = alloca ptr, align 8
  %peer_hello.addr = alloca ptr, align 8
  %hello_type.addr = alloca i32, align 4
  %error_details.addr = alloca ptr, align 8
  %address = alloca %"class.base::BasicStringPiece", align 8
  %ref.tmp = alloca %"class.std::__cxx11::basic_string", align 8
  %ref.tmp3 = alloca %"class.std::__cxx11::basic_string", align 8
  %exn.slot = alloca ptr, align 8
  %ehselector.slot = alloca i32, align 4
  %address_coder = alloca %"class.net::QuicSocketAddressCoder", align 8
  %ref.tmp14 = alloca %"class.net::IPEndPoint", align 8
  store ptr %this, ptr %this.addr, align 8
  store ptr %peer_hello, ptr %peer_hello.addr, align 8
  store i32 %hello_type, ptr %hello_type.addr, align 4
  store ptr %error_details, ptr %error_details.addr, align 8
  %this1 = load ptr, ptr %this.addr, align 8
  call void @_ZN4base16BasicStringPieceINSt7__cxx1112basic_stringIcSt11char_traitsIcESaIcEEEEC1Ev(ptr noundef nonnull align 8 dereferenceable(16) %address)
  %0 = load ptr, ptr %peer_hello.addr, align 8
  %tag_ = getelementptr inbounds %"class.net::QuicConfigValue", ptr %this1, i32 0, i32 1
  %1 = load i32, ptr %tag_, align 8
  %call = call noundef zeroext i1 @_ZNK3net22CryptoHandshakeMessage14GetStringPieceEjPN4base16BasicStringPieceINSt7__cxx1112basic_stringIcSt11char_traitsIcESaIcEEEEE(ptr noundef nonnull align 8 dereferenceable(72) %0, i32 noundef %1, ptr noundef %address)
  br i1 %call, label %if.else, label %if.then

if.then:                                          ; preds = %entry
  %presence_ = getelementptr inbounds %"class.net::QuicConfigValue", ptr %this1, i32 0, i32 2
  %2 = load i32, ptr %presence_, align 4
  %cmp = icmp eq i32 %2, 1
  br i1 %cmp, label %if.then2, label %if.end

if.then2:                                         ; preds = %if.then
  %tag_4 = getelementptr inbounds %"class.net::QuicConfigValue", ptr %this1, i32 0, i32 1
  %3 = load i32, ptr %tag_4, align 8
  call void @_ZN3net9QuicUtils11TagToStringB5cxx11Ej(ptr sret(%"class.std::__cxx11::basic_string") align 8 %ref.tmp3, i32 noundef %3)
  invoke void @_ZStplIcSt11char_traitsIcESaIcEENSt7__cxx1112basic_stringIT_T0_T1_EEPKS5_OS8_(ptr sret(%"class.std::__cxx11::basic_string") align 8 %ref.tmp, ptr noundef @.str, ptr noundef nonnull align 8 dereferenceable(32) %ref.tmp3)
          to label %invoke.cont unwind label %lpad

invoke.cont:                                      ; preds = %if.then2
  %4 = load ptr, ptr %error_details.addr, align 8
  %call5 = call noundef nonnull align 8 dereferenceable(32) ptr @_ZNSt7__cxx1112basic_stringIcSt11char_traitsIcESaIcEEaSEOS4_(ptr noundef nonnull align 8 dereferenceable(32) %4, ptr noundef nonnull align 8 dereferenceable(32) %ref.tmp) #11
  call void @_ZNSt7__cxx1112basic_stringIcSt11char_traitsIcESaIcEED1Ev(ptr noundef nonnull align 8 dereferenceable(32) %ref.tmp) #11
  call void @_ZNSt7__cxx1112basic_stringIcSt11char_traitsIcESaIcEED1Ev(ptr noundef nonnull align 8 dereferenceable(32) %ref.tmp3) #11
  store i32 35, ptr %retval, align 4
  br label %return

lpad:                                             ; preds = %if.then2
  %5 = landingpad { ptr, i32 }
          cleanup
  %6 = extractvalue { ptr, i32 } %5, 0
  store ptr %6, ptr %exn.slot, align 8
  %7 = extractvalue { ptr, i32 } %5, 1
  store i32 %7, ptr %ehselector.slot, align 4
  call void @_ZNSt7__cxx1112basic_stringIcSt11char_traitsIcESaIcEED1Ev(ptr noundef nonnull align 8 dereferenceable(32) %ref.tmp3) #11
  br label %eh.resume

if.end:                                           ; preds = %if.then
  br label %if.end23

if.else:                                          ; preds = %entry
  call void @_ZN3net22QuicSocketAddressCoderC1Ev(ptr noundef nonnull align 8 dereferenceable(32) %address_coder)
  %call8 = invoke noundef ptr @_ZNK4base16BasicStringPieceINSt7__cxx1112basic_stringIcSt11char_traitsIcESaIcEEEE4dataEv(ptr noundef nonnull align 8 dereferenceable(16) %address)
          to label %invoke.cont7 unwind label %lpad6

invoke.cont7:                                     ; preds = %if.else
  %call10 = invoke noundef i64 @_ZNK4base16BasicStringPieceINSt7__cxx1112basic_stringIcSt11char_traitsIcESaIcEEEE6lengthEv(ptr noundef nonnull align 8 dereferenceable(16) %address)
          to label %invoke.cont9 unwind label %lpad6

invoke.cont9:                                     ; preds = %invoke.cont7
  %call12 = invoke noundef zeroext i1 @_ZN3net22QuicSocketAddressCoder6DecodeEPKcm(ptr noundef nonnull align 8 dereferenceable(32) %address_coder, ptr noundef %call8, i64 noundef %call10)
          to label %invoke.cont11 unwind label %lpad6

invoke.cont11:                                    ; preds = %invoke.cont9
  br i1 %call12, label %if.then13, label %if.end22

if.then13:                                        ; preds = %invoke.cont11
  %call16 = invoke noundef nonnull align 8 dereferenceable(24) ptr @_ZNK3net22QuicSocketAddressCoder2ipEv(ptr noundef nonnull align 8 dereferenceable(32) %address_coder)
          to label %invoke.cont15 unwind label %lpad6

invoke.cont15:                                    ; preds = %if.then13
  %call18 = invoke noundef zeroext i16 @_ZNK3net22QuicSocketAddressCoder4portEv(ptr noundef nonnull align 8 dereferenceable(32) %address_coder)
          to label %invoke.cont17 unwind label %lpad6

invoke.cont17:                                    ; preds = %invoke.cont15
  invoke void @_ZN3net10IPEndPointC1ERKNS_9IPAddressEt(ptr noundef nonnull align 8 dereferenceable(26) %ref.tmp14, ptr noundef nonnull align 8 dereferenceable(24) %call16, i16 noundef zeroext %call18)
          to label %invoke.cont19 unwind label %lpad6

invoke.cont19:                                    ; preds = %invoke.cont17
  invoke void @_ZN3net19QuicFixedIPEndPoint16SetReceivedValueERKNS_10IPEndPointE(ptr noundef nonnull align 8 dereferenceable(89) %this1, ptr noundef nonnull align 8 dereferenceable(26) %ref.tmp14)
          to label %invoke.cont21 unwind label %lpad20

invoke.cont21:                                    ; preds = %invoke.cont19
  call void @_ZN3net10IPEndPointD1Ev(ptr noundef nonnull align 8 dereferenceable(26) %ref.tmp14) #11
  br label %if.end22

lpad6:                                            ; preds = %invoke.cont17, %invoke.cont15, %if.then13, %invoke.cont9, %invoke.cont7, %if.else
  %8 = landingpad { ptr, i32 }
          cleanup
  %9 = extractvalue { ptr, i32 } %8, 0
  store ptr %9, ptr %exn.slot, align 8
  %10 = extractvalue { ptr, i32 } %8, 1
  store i32 %10, ptr %ehselector.slot, align 4
  br label %ehcleanup

lpad20:                                           ; preds = %invoke.cont19
  %11 = landingpad { ptr, i32 }
          cleanup
  %12 = extractvalue { ptr, i32 } %11, 0
  store ptr %12, ptr %exn.slot, align 8
  %13 = extractvalue { ptr, i32 } %11, 1
  store i32 %13, ptr %ehselector.slot, align 4
  call void @_ZN3net10IPEndPointD1Ev(ptr noundef nonnull align 8 dereferenceable(26) %ref.tmp14) #11
  br label %ehcleanup

if.end22:                                         ; preds = %invoke.cont21, %invoke.cont11
  call void @_ZN3net22QuicSocketAddressCoderD1Ev(ptr noundef nonnull align 8 dereferenceable(32) %address_coder) #11
  br label %if.end23

ehcleanup:                                        ; preds = %lpad20, %lpad6
  call void @_ZN3net22QuicSocketAddressCoderD1Ev(ptr noundef nonnull align 8 dereferenceable(32) %address_coder) #11
  br label %eh.resume

if.end23:                                         ; preds = %if.end22, %if.end
  store i32 0, ptr %retval, align 4
  br label %return

return:                                           ; preds = %if.end23, %invoke.cont
  %14 = load i32, ptr %retval, align 4
  ret i32 %14

eh.resume:                                        ; preds = %ehcleanup, %lpad
  %exn = load ptr, ptr %exn.slot, align 8
  %sel = load i32, ptr %ehselector.slot, align 4
  %lpad.val = insertvalue { ptr, i32 } poison, ptr %exn, 0
  %lpad.val24 = insertvalue { ptr, i32 } %lpad.val, i32 %sel, 1
  resume { ptr, i32 } %lpad.val24
}