; Function Attrs: mustprogress uwtable
define dso_local noundef i32 @_ZN3net19QuicFixedIPEndPoint16ProcessPeerHelloERKNS_22CryptoHandshakeMessageENS_9HelloTypeEPNSt7__cxx1112basic_stringIcSt11char_traitsIcESaIcEEE(ptr noundef nonnull align 8 dereferenceable(89) %this, ptr noundef nonnull align 8 dereferenceable(72) %peer_hello, i32 %hello_type, ptr noundef %error_details) unnamed_addr #0 align 2 personality ptr @__gxx_personality_v0 {
entry:
  %address = alloca %"class.base::BasicStringPiece", align 8
  %ref.tmp = alloca %"class.std::__cxx11::basic_string", align 8
  %ref.tmp3 = alloca %"class.std::__cxx11::basic_string", align 8
  %address_coder = alloca %"class.net::QuicSocketAddressCoder", align 8
  %ref.tmp14 = alloca %"class.net::IPEndPoint", align 8
  call void @_ZN4base16BasicStringPieceINSt7__cxx1112basic_stringIcSt11char_traitsIcESaIcEEEEC1Ev(ptr noundef nonnull align 8 dereferenceable(16) %address)
  %tag_ = getelementptr inbounds i8, ptr %this, i64 8
  %0 = load i32, ptr %tag_, align 8
  %call = call noundef zeroext i1 @_ZNK3net22CryptoHandshakeMessage14GetStringPieceEjPN4base16BasicStringPieceINSt7__cxx1112basic_stringIcSt11char_traitsIcESaIcEEEEE(ptr noundef nonnull align 8 dereferenceable(72) %peer_hello, i32 noundef %0, ptr noundef nonnull %address)
  br i1 %call, label %if.else, label %if.then

if.then:                                          ; preds = %entry
  %presence_ = getelementptr inbounds i8, ptr %this, i64 12
  %1 = load i32, ptr %presence_, align 4
  %cmp = icmp eq i32 %1, 1
  br i1 %cmp, label %if.then2, label %return

if.then2:                                         ; preds = %if.then
  %2 = load i32, ptr %tag_, align 8
  call void @_ZN3net9QuicUtils11TagToStringB5cxx11Ej(ptr nonnull sret(%"class.std::__cxx11::basic_string") align 8 %ref.tmp3, i32 noundef %2)
  %call.i3 = invoke noundef nonnull align 8 dereferenceable(32) ptr @_ZNSt7__cxx1112basic_stringIcSt11char_traitsIcESaIcEE6insertEmPKc(ptr noundef nonnull align 8 dereferenceable(32) %ref.tmp3, i64 noundef 0, ptr noundef nonnull @.str)
          to label %invoke.cont unwind label %lpad

invoke.cont:                                      ; preds = %if.then2
  call void @_ZNSt7__cxx1112basic_stringIcSt11char_traitsIcESaIcEEC1EOS4_(ptr noundef nonnull align 8 dereferenceable(32) %ref.tmp, ptr noundef nonnull align 8 dereferenceable(32) %call.i3) #17
  %call5 = call noundef nonnull align 8 dereferenceable(32) ptr @_ZNSt7__cxx1112basic_stringIcSt11char_traitsIcESaIcEEaSEOS4_(ptr noundef nonnull align 8 dereferenceable(32) %error_details, ptr noundef nonnull align 8 dereferenceable(32) %ref.tmp) #17
  call void @_ZNSt7__cxx1112basic_stringIcSt11char_traitsIcESaIcEED1Ev(ptr noundef nonnull align 8 dereferenceable(32) %ref.tmp) #17
  call void @_ZNSt7__cxx1112basic_stringIcSt11char_traitsIcESaIcEED1Ev(ptr noundef nonnull align 8 dereferenceable(32) %ref.tmp3) #17
  br label %return

lpad:                                             ; preds = %if.then2
  %3 = landingpad { ptr, i32 }
          cleanup
  call void @_ZNSt7__cxx1112basic_stringIcSt11char_traitsIcESaIcEED1Ev(ptr noundef nonnull align 8 dereferenceable(32) %ref.tmp3) #17
  br label %eh.resume

if.else:                                          ; preds = %entry
  call void @_ZN3net22QuicSocketAddressCoderC1Ev(ptr noundef nonnull align 8 dereferenceable(32) %address_coder)
  %call8 = invoke noundef ptr @_ZNK4base16BasicStringPieceINSt7__cxx1112basic_stringIcSt11char_traitsIcESaIcEEEE4dataEv(ptr noundef nonnull align 8 dereferenceable(16) %address)
          to label %invoke.cont7 unwind label %lpad6

invoke.cont7:                                     ; preds = %if.else
  %call10 = invoke noundef i64 @_ZNK4base16BasicStringPieceINSt7__cxx1112basic_stringIcSt11char_traitsIcESaIcEEEE6lengthEv(ptr noundef nonnull align 8 dereferenceable(16) %address)
          to label %invoke.cont9 unwind label %lpad6

invoke.cont9:                                     ; preds = %invoke.cont7
  %call12 = invoke noundef zeroext i1 @_ZN3net22QuicSocketAddressCoder6DecodeEPKcm(ptr noundef nonnull align 8 dereferenceable(32) %address_coder, ptr noundef %call8, i64 noundef %call10)
          to label %invoke.cont11 unwind label %lpad6

invoke.cont11:                                    ; preds = %invoke.cont9
  br i1 %call12, label %invoke.cont17, label %if.end22

invoke.cont17:                                    ; preds = %invoke.cont11
  %port_.i.i = getelementptr inbounds i8, ptr %address_coder, i64 24
  %4 = load i16, ptr %port_.i.i, align 8
  invoke void @_ZN3net10IPEndPointC1ERKNS_9IPAddressEt(ptr noundef nonnull align 8 dereferenceable(26) %ref.tmp14, ptr noundef nonnull align 8 dereferenceable(24) %address_coder, i16 noundef zeroext %4)
          to label %invoke.cont19 unwind label %lpad6

invoke.cont19:                                    ; preds = %invoke.cont17
  %has_receive_value_.i = getelementptr inbounds i8, ptr %this, i64 88
  store i8 1, ptr %has_receive_value_.i, align 8
  %receive_value_.i = getelementptr inbounds i8, ptr %this, i64 56
  %call.i.i.i5 = invoke noundef nonnull align 8 dereferenceable(24) ptr @_ZNSt6vectorIhSaIhEEaSERKS1_(ptr noundef nonnull align 8 dereferenceable(24) %receive_value_.i, ptr noundef nonnull align 8 dereferenceable(24) %ref.tmp14)
          to label %invoke.cont21 unwind label %lpad20

invoke.cont21:                                    ; preds = %invoke.cont19
  %port_.i.i4 = getelementptr inbounds i8, ptr %ref.tmp14, i64 24
  %5 = load i16, ptr %port_.i.i4, align 8
  %port_3.i.i = getelementptr inbounds i8, ptr %this, i64 80
  store i16 %5, ptr %port_3.i.i, align 8
  call void @_ZN3net10IPEndPointD1Ev(ptr noundef nonnull align 8 dereferenceable(26) %ref.tmp14) #17
  br label %if.end22

lpad6:                                            ; preds = %invoke.cont17, %invoke.cont9, %invoke.cont7, %if.else
  %6 = landingpad { ptr, i32 }
          cleanup
  br label %ehcleanup

lpad20:                                           ; preds = %invoke.cont19
  %7 = landingpad { ptr, i32 }
          cleanup
  call void @_ZN3net10IPEndPointD1Ev(ptr noundef nonnull align 8 dereferenceable(26) %ref.tmp14) #17
  br label %ehcleanup

if.end22:                                         ; preds = %invoke.cont21, %invoke.cont11
  call void @_ZN3net22QuicSocketAddressCoderD1Ev(ptr noundef nonnull align 8 dereferenceable(32) %address_coder) #17
  br label %return

ehcleanup:                                        ; preds = %lpad20, %lpad6
  %.pn = phi { ptr, i32 } [ %7, %lpad20 ], [ %6, %lpad6 ]
  call void @_ZN3net22QuicSocketAddressCoderD1Ev(ptr noundef nonnull align 8 dereferenceable(32) %address_coder) #17
  br label %eh.resume

return:                                           ; preds = %if.end22, %if.then, %invoke.cont
  %retval.0 = phi i32 [ 35, %invoke.cont ], [ 0, %if.then ], [ 0, %if.end22 ]
  ret i32 %retval.0

eh.resume:                                        ; preds = %ehcleanup, %lpad
  %.pn.pn = phi { ptr, i32 } [ %.pn, %ehcleanup ], [ %3, %lpad ]
  resume { ptr, i32 } %.pn.pn
}